target datalayout = "e-m:e-p270:32:32-p271:32:32-p272:64:64-i64:64-i128:128-f80:128-n8:16:32:64-S128"
target triple = "x86_64-pc-linux-gnu"

%"class.std::__cxx11::basic_string" = type { %"struct.std::__cxx11::basic_string<char>::_Alloc_hider", i64, %union.anon }
%"struct.std::__cxx11::basic_string<char>::_Alloc_hider" = type { ptr }
%union.anon = type { i64, [8 x i8] }
%struct.cmFileInstaller = type { %struct.cmFileCopier.base, i32, i32, i8, i8, i8, i8, i32, %"class.std::__cxx11::basic_string", %"class.std::__cxx11::basic_string" }
%struct.cmFileCopier.base = type <{ ptr, ptr, ptr, ptr, i8, [7 x i8], %class.cmFileTimeCache, i8, [3 x i8], i32, i32, [4 x i8], %"class.std::vector", ptr, i8, i8, i8, i8, [4 x i8], %"class.std::__cxx11::basic_string", %"class.std::__cxx11::basic_string", %"class.std::vector.8", i32 }>
%class.cmFileTimeCache = type { %"class.std::unordered_map" }
%"class.std::unordered_map" = type { %"class.std::_Hashtable" }
%"class.std::_Hashtable" = type { ptr, i64, %"struct.std::__detail::_Hash_node_base", i64, %"struct.std::__detail::_Prime_rehash_policy", ptr }
%"struct.std::__detail::_Hash_node_base" = type { ptr }
%"struct.std::__detail::_Prime_rehash_policy" = type { float, i64 }
%"class.std::vector" = type { %"struct.std::_Vector_base" }
%"struct.std::_Vector_base" = type { %"struct.std::_Vector_base<cmFileCopier::MatchRule, std::allocator<cmFileCopier::MatchRule>>::_Vector_impl" }
%"struct.std::_Vector_base<cmFileCopier::MatchRule, std::allocator<cmFileCopier::MatchRule>>::_Vector_impl" = type { %"struct.std::_Vector_base<cmFileCopier::MatchRule, std::allocator<cmFileCopier::MatchRule>>::_Vector_impl_data" }
%"struct.std::_Vector_base<cmFileCopier::MatchRule, std::allocator<cmFileCopier::MatchRule>>::_Vector_impl_data" = type { ptr, ptr, ptr }
%"class.std::vector.8" = type { %"struct.std::_Vector_base.9" }
%"struct.std::_Vector_base.9" = type { %"struct.std::_Vector_base<std::__cxx11::basic_string<char>, std::allocator<std::__cxx11::basic_string<char>>>::_Vector_impl" }
%"struct.std::_Vector_base<std::__cxx11::basic_string<char>, std::allocator<std::__cxx11::basic_string<char>>>::_Vector_impl" = type { %"struct.std::_Vector_base<std::__cxx11::basic_string<char>, std::allocator<std::__cxx11::basic_string<char>>>::_Vector_impl_data" }
%"struct.std::_Vector_base<std::__cxx11::basic_string<char>, std::allocator<std::__cxx11::basic_string<char>>>::_Vector_impl_data" = type { ptr, ptr, ptr }
%struct.cmFileCopier = type <{ ptr, ptr, ptr, ptr, i8, [7 x i8], %class.cmFileTimeCache, i8, [3 x i8], i32, i32, [4 x i8], %"class.std::vector", ptr, i8, i8, i8, i8, [4 x i8], %"class.std::__cxx11::basic_string", %"class.std::__cxx11::basic_string", %"class.std::vector.8", i32, [4 x i8] }>

; Function Attrs: mustprogress uwtable
define dso_local noundef zeroext i1 @_ZN15cmFileInstaller10CheckValueERKNSt7__cxx1112basic_stringIcSt11char_traitsIcESaIcEEE(ptr noundef nonnull align 8 dereferenceable(328) %0, ptr noundef nonnull align 8 dereferenceable(32) %1) unnamed_addr #4 align 2 {
  %3 = alloca i1, align 1
  %4 = alloca ptr, align 8
  %5 = alloca ptr, align 8
  store ptr %0, ptr %4, align 8
  store ptr %1, ptr %5, align 8
  %6 = load ptr, ptr %4, align 8
  %7 = getelementptr inbounds %struct.cmFileCopier, ptr %6, i32 0, i32 22
  %8 = load i32, ptr %7, align 8
  switch i32 %8, label %19 [
    i32 10, label %9
    i32 11, label %15
  ]

9:                                                ; preds = %2
  %10 = load ptr, ptr %5, align 8
  %11 = call noundef zeroext i1 @_ZN15cmFileInstaller23GetTargetTypeFromStringERKNSt7__cxx1112basic_stringIcSt11char_traitsIcESaIcEEE(ptr noundef nonnull align 8 dereferenceable(328) %6, ptr noundef nonnull align 8 dereferenceable(32) %10)
  br i1 %11, label %14, label %12

12:                                               ; preds = %9
  %13 = getelementptr inbounds %struct.cmFileCopier, ptr %6, i32 0, i32 22
  store i32 1, ptr %13, align 8
  br label %14

14:                                               ; preds = %12, %9
  br label %22

15:                                               ; preds = %2
  %16 = load ptr, ptr %5, align 8
  %17 = getelementptr inbounds %struct.cmFileInstaller, ptr %6, i32 0, i32 8
  %18 = call noundef nonnull align 8 dereferenceable(32) ptr @_ZNSt7__cxx1112basic_stringIcSt11char_traitsIcESaIcEEaSERKS4_(ptr noundef nonnull align 8 dereferenceable(32) %17, ptr noundef nonnull align 8 dereferenceable(32) %16)
  br label %22

19:                                               ; preds = %2
  %20 = load ptr, ptr %5, align 8
  %21 = call noundef zeroext i1 @_ZN12cmFileCopier10CheckValueERKNSt7__cxx1112basic_stringIcSt11char_traitsIcESaIcEEE(ptr noundef nonnull align 8 dereferenceable(244) %6, ptr noundef nonnull align 8 dereferenceable(32) %20)
  store i1 %21, ptr %3, align 1
  br label %23

22:                                               ; preds = %15, %14
  store i1 true, ptr %3, align 1
  br label %23

23:                                               ; preds = %22, %19
  %24 = load i1, ptr %3, align 1
  ret i1 %24
}