; Function Attrs: mustprogress uwtable
define dso_local noundef zeroext i1 @_ZN15cmFileInstaller10CheckValueERKNSt7__cxx1112basic_stringIcSt11char_traitsIcESaIcEEE(ptr noundef nonnull align 8 dereferenceable(328) %0, ptr noundef nonnull align 8 dereferenceable(32) %1) unnamed_addr #3 align 2 {
  %3 = getelementptr inbounds i8, ptr %0, i64 240
  %4 = load i32, ptr %3, align 8
  switch i32 %4, label %11 [
    i32 10, label %5
    i32 11, label %8
  ]

5:                                                ; preds = %2
  %6 = tail call noundef zeroext i1 @_ZN15cmFileInstaller23GetTargetTypeFromStringERKNSt7__cxx1112basic_stringIcSt11char_traitsIcESaIcEEE(ptr noundef nonnull align 8 dereferenceable(328) %0, ptr noundef nonnull align 8 dereferenceable(32) %1)
  br i1 %6, label %13, label %7

7:                                                ; preds = %5
  store i32 1, ptr %3, align 8
  br label %13

8:                                                ; preds = %2
  %9 = getelementptr inbounds i8, ptr %0, i64 264
  %10 = tail call noundef nonnull align 8 dereferenceable(32) ptr @_ZNSt7__cxx1112basic_stringIcSt11char_traitsIcESaIcEEaSERKS4_(ptr noundef nonnull align 8 dereferenceable(32) %9, ptr noundef nonnull align 8 dereferenceable(32) %1)
  br label %13

11:                                               ; preds = %2
  %12 = tail call noundef zeroext i1 @_ZN12cmFileCopier10CheckValueERKNSt7__cxx1112basic_stringIcSt11char_traitsIcESaIcEEE(ptr noundef nonnull align 8 dereferenceable(244) %0, ptr noundef nonnull align 8 dereferenceable(32) %1)
  br label %13

13:                                               ; preds = %8, %7, %5, %11
  %.0 = phi i1 [ %12, %11 ], [ true, %5 ], [ true, %7 ], [ true, %8 ]
  ret i1 %.0
}